; Function Attrs: mustprogress uwtable
define void @_ZN7openvdb5v11_06points18StringMetaInserterC2ERNS0_7MetaMapE(ptr noundef nonnull align 8 dereferenceable(144) %this, ptr noundef nonnull align 8 dereferenceable(56) %metadata) unnamed_addr #3 align 2 personality ptr @__gxx_personality_v0 {
entry:
  store ptr %metadata, ptr %this, align 8
  %mIdBlocks = getelementptr inbounds i8, ptr %this, i64 8
  tail call void @llvm.memset.p0.i64(ptr noundef nonnull align 8 dereferenceable(80) %mIdBlocks, i8 0, i64 80, i1 false)
  tail call void @_ZNSt11_Deque_baseISt4pairIjjESaIS1_EE17_M_initialize_mapEm(ptr noundef nonnull align 8 dereferenceable(80) %mIdBlocks, i64 noundef 0)
  %mCache = getelementptr inbounds i8, ptr %this, i64 88
  %0 = getelementptr inbounds i8, ptr %this, i64 120
  store i64 0, ptr %0, align 8
  %_M_single_bucket.i.i.i = getelementptr inbounds i8, ptr %this, i64 136
  store ptr %_M_single_bucket.i.i.i, ptr %mCache, align 8
  %_M_bucket_count.i.i.i = getelementptr inbounds i8, ptr %this, i64 96
  store i64 1, ptr %_M_bucket_count.i.i.i, align 8
  %_M_before_begin.i.i.i = getelementptr inbounds i8, ptr %this, i64 104
  %_M_rehash_policy.i.i.i = getelementptr inbounds i8, ptr %this, i64 120
  tail call void @llvm.memset.p0.i64(ptr noundef nonnull align 8 dereferenceable(16) %_M_before_begin.i.i.i, i8 0, i64 16, i1 false)
  store float 1.000000e+00, ptr %_M_rehash_policy.i.i.i, align 8
  %_M_next_resize.i.i.i.i = getelementptr inbounds i8, ptr %this, i64 128
  tail call void @llvm.memset.p0.i64(ptr noundef nonnull align 8 dereferenceable(16) %_M_next_resize.i.i.i.i, i8 0, i64 16, i1 false)
  invoke void @_ZN7openvdb5v11_06points18StringMetaInserter10resetCacheEv(ptr noundef nonnull align 8 dereferenceable(144) %this)
          to label %invoke.cont unwind label %lpad

invoke.cont:                                      ; preds = %entry
  ret void

lpad:                                             ; preds = %entry
  %1 = landingpad { ptr, i32 }
          cleanup
  tail call void @_ZN7openvdb5v11_06points15StringMetaCacheD2Ev(ptr noundef nonnull align 8 dereferenceable(56) %mCache) #23
  tail call void @_ZNSt5dequeISt4pairIjjESaIS1_EED2Ev(ptr noundef nonnull align 8 dereferenceable(80) %mIdBlocks) #23
  resume { ptr, i32 } %1
}